#include <math.h>
#include <stdio.h>
#include <stdlib.h>
#include <string.h>

int fj(int n,int m)
{
	int i,j,k=0;
	if(n==1) return 1;
	for(i=m;i<=n;i++)
	{
		if(n%i==0)
		k+=fj(n/i,i);
	}
	return k;
}
int main()
{
	int n,i;
	scanf("%d",&n);
	for(;n>0;n--)
	{
		scanf("%d",&i);
		printf("%d",fj(i,2));
		if(n-1) printf("\n");
	}
}