; ModuleID = '1/2041.c'
source_filename = "1/2041.c"
target datalayout = "e-m:e-p270:32:32-p271:32:32-p272:64:64-i64:64-f80:128-n8:16:32:64-S128"
target triple = "x86_64-pc-linux-gnu"

@.str = private unnamed_addr constant [3 x i8] c"%d\00", align 1
@.str.1 = private unnamed_addr constant [2 x i8] c"\0A\00", align 1

; Function Attrs: noinline nounwind uwtable
define dso_local i32 @fj(i32 %0, i32 %1) #0 {
  %3 = alloca i32, align 4
  %4 = alloca i32, align 4
  %5 = alloca i32, align 4
  %6 = alloca i32, align 4
  %7 = alloca i32, align 4
  %8 = alloca i32, align 4
  store i32 %0, i32* %4, align 4
  store i32 %1, i32* %5, align 4
  store i32 0, i32* %8, align 4
  %9 = load i32, i32* %4, align 4
  %10 = icmp eq i32 %9, 1
  br i1 %10, label %11, label %12

11:                                               ; preds = %2
  store i32 1, i32* %3, align 4
  br label %37

12:                                               ; preds = %2
  %13 = load i32, i32* %5, align 4
  store i32 %13, i32* %6, align 4
  br label %14

14:                                               ; preds = %32, %12
  %15 = load i32, i32* %6, align 4
  %16 = load i32, i32* %4, align 4
  %17 = icmp sle i32 %15, %16
  br i1 %17, label %18, label %35

18:                                               ; preds = %14
  %19 = load i32, i32* %4, align 4
  %20 = load i32, i32* %6, align 4
  %21 = srem i32 %19, %20
  %22 = icmp eq i32 %21, 0
  br i1 %22, label %23, label %31

23:                                               ; preds = %18
  %24 = load i32, i32* %4, align 4
  %25 = load i32, i32* %6, align 4
  %26 = sdiv i32 %24, %25
  %27 = load i32, i32* %6, align 4
  %28 = call i32 @fj(i32 %26, i32 %27)
  %29 = load i32, i32* %8, align 4
  %30 = add nsw i32 %29, %28
  store i32 %30, i32* %8, align 4
  br label %31

31:                                               ; preds = %23, %18
  br label %32

32:                                               ; preds = %31
  %33 = load i32, i32* %6, align 4
  %34 = add nsw i32 %33, 1
  store i32 %34, i32* %6, align 4
  br label %14

35:                                               ; preds = %14
  %36 = load i32, i32* %8, align 4
  store i32 %36, i32* %3, align 4
  br label %37

37:                                               ; preds = %35, %11
  %38 = load i32, i32* %3, align 4
  ret i32 %38
}

; Function Attrs: noinline nounwind uwtable
define dso_local i32 @main() #0 {
  %1 = alloca i32, align 4
  %2 = alloca i32, align 4
  %3 = alloca i32, align 4
  store i32 0, i32* %1, align 4
  %4 = call i32 (i8*, ...) @__isoc99_scanf(i8* getelementptr inbounds ([3 x i8], [3 x i8]* @.str, i64 0, i64 0), i32* %2)
  br label %5

5:                                                ; preds = %19, %0
  %6 = load i32, i32* %2, align 4
  %7 = icmp sgt i32 %6, 0
  br i1 %7, label %8, label %22

8:                                                ; preds = %5
  %9 = call i32 (i8*, ...) @__isoc99_scanf(i8* getelementptr inbounds ([3 x i8], [3 x i8]* @.str, i64 0, i64 0), i32* %3)
  %10 = load i32, i32* %3, align 4
  %11 = call i32 @fj(i32 %10, i32 2)
  %12 = call i32 (i8*, ...) @printf(i8* getelementptr inbounds ([3 x i8], [3 x i8]* @.str, i64 0, i64 0), i32 %11)
  %13 = load i32, i32* %2, align 4
  %14 = sub nsw i32 %13, 1
  %15 = icmp ne i32 %14, 0
  br i1 %15, label %16, label %18

16:                                               ; preds = %8
  %17 = call i32 (i8*, ...) @printf(i8* getelementptr inbounds ([2 x i8], [2 x i8]* @.str.1, i64 0, i64 0))
  br label %18

18:                                               ; preds = %16, %8
  br label %19

19:                                               ; preds = %18
  %20 = load i32, i32* %2, align 4
  %21 = add nsw i32 %20, -1
  store i32 %21, i32* %2, align 4
  br label %5

22:                                               ; preds = %5
  %23 = load i32, i32* %1, align 4
  ret i32 %23
}

declare dso_local i32 @__isoc99_scanf(i8*, ...) #1

declare dso_local i32 @printf(i8*, ...) #1


!llvm.module.flags = !{!0}
!llvm.ident = !{!1}

!0 = !{i32 1, !"wchar_size", i32 4}
!1 = !{!"clang version 10.0.0-4ubuntu1 "}
